target datalayout = "e-m:e-p270:32:32-p271:32:32-p272:64:64-i64:64-i128:128-f80:128-n8:16:32:64-S128"
target triple = "x86_64-pc-linux-gnu"

%struct.MpegTSContext = type { ptr, ptr, i32, i64, i32, i32, i32, i64, i64, i32, ptr, i64, i32, i32, i32, i32, i32, i32, i32, i32, i32, ptr, [8192 x i8], [8192 x ptr], i32, ptr, [32 x ptr] }
%struct.AVFormatContext = type { ptr, ptr, ptr, ptr, ptr, i32, i32, ptr, i32, ptr, i32, ptr, ptr, i64, i64, i64, i32, i32, i32, i64, i64, ptr, i32, i32, ptr, i32, i32, i32, i32, ptr, i64, i32, i32, %struct.AVIOInterruptCB, i32, i32, i32, i32, i64, i32, i32, i32, i32, i32, i32, i32, i32, i32, i32, i32, i32, i64, i32, i32, i32, i32, i32, ptr, ptr, ptr, ptr, i32, ptr, ptr, ptr, ptr, i32, ptr, ptr, i64, ptr, ptr, ptr, i64 }
%struct.AVIOInterruptCB = type { ptr, ptr }

@.str.94 = private unnamed_addr constant [28 x i8] c"changing packet size to %d\0A\00", align 1
@.str.95 = private unnamed_addr constant [51 x i8] c"max resync size reached, could not find sync byte\0A\00", align 1

; Function Attrs: alwaysinline nounwind uwtable
define internal i64 @avio_tell(ptr noundef %0) #2 {
  %2 = alloca ptr, align 8
  store ptr %0, ptr %2, align 8, !tbaa !183
  %3 = load ptr, ptr %2, align 8, !tbaa !183
  %4 = call i64 @avio_seek(ptr noundef %3, i64 noundef 0, i32 noundef 1)
  ret i64 %4
}

; Function Attrs: nounwind uwtable
define internal i32 @mpegts_resync(ptr noundef %0, i32 noundef %1, ptr noundef %2) #0 {
  %4 = alloca i32, align 4
  %5 = alloca ptr, align 8
  %6 = alloca i32, align 4
  %7 = alloca ptr, align 8
  %8 = alloca ptr, align 8
  %9 = alloca ptr, align 8
  %10 = alloca i32, align 4
  %11 = alloca i32, align 4
  %12 = alloca i64, align 8
  %13 = alloca i64, align 8
  %14 = alloca i32, align 4
  %15 = alloca i32, align 4
  %16 = alloca i32, align 4
  store ptr %0, ptr %5, align 8, !tbaa !4
  store i32 %1, ptr %6, align 4, !tbaa !11
  store ptr %2, ptr %7, align 8, !tbaa !16
  call void @llvm.lifetime.start.p0(i64 8, ptr %8) #12
  %17 = load ptr, ptr %5, align 8, !tbaa !4
  %18 = getelementptr inbounds nuw %struct.AVFormatContext, ptr %17, i32 0, i32 3
  %19 = load ptr, ptr %18, align 8, !tbaa !181
  store ptr %19, ptr %8, align 8, !tbaa !20
  call void @llvm.lifetime.start.p0(i64 8, ptr %9) #12
  %20 = load ptr, ptr %5, align 8, !tbaa !4
  %21 = getelementptr inbounds nuw %struct.AVFormatContext, ptr %20, i32 0, i32 4
  %22 = load ptr, ptr %21, align 8, !tbaa !182
  store ptr %22, ptr %9, align 8, !tbaa !183
  call void @llvm.lifetime.start.p0(i64 4, ptr %10) #12
  call void @llvm.lifetime.start.p0(i64 4, ptr %11) #12
  call void @llvm.lifetime.start.p0(i64 8, ptr %12) #12
  %23 = load ptr, ptr %9, align 8, !tbaa !183
  %24 = call i64 @avio_tell(ptr noundef %23)
  store i64 %24, ptr %12, align 8, !tbaa !90
  call void @llvm.lifetime.start.p0(i64 8, ptr %13) #12
  %25 = load i32, ptr %6, align 4, !tbaa !11
  %26 = sext i32 %25 to i64
  %27 = load i64, ptr %12, align 8, !tbaa !90
  %28 = icmp ugt i64 %26, %27
  br i1 %28, label %29, label %31

29:                                               ; preds = %3
  %30 = load i64, ptr %12, align 8, !tbaa !90
  br label %34

31:                                               ; preds = %3
  %32 = load i32, ptr %6, align 4, !tbaa !11
  %33 = sext i32 %32 to i64
  br label %34

34:                                               ; preds = %31, %29
  %35 = phi i64 [ %30, %29 ], [ %33, %31 ]
  store i64 %35, ptr %13, align 8, !tbaa !90
  %36 = load ptr, ptr %7, align 8, !tbaa !16
  %37 = getelementptr inbounds i8, ptr %36, i64 0
  %38 = load i8, ptr %37, align 1, !tbaa !66
  %39 = zext i8 %38 to i32
  %40 = icmp eq i32 %39, 128
  br i1 %40, label %41, label %53

41:                                               ; preds = %34
  %42 = load ptr, ptr %7, align 8, !tbaa !16
  %43 = getelementptr inbounds i8, ptr %42, i64 12
  %44 = load i8, ptr %43, align 1, !tbaa !66
  %45 = zext i8 %44 to i32
  %46 = icmp eq i32 %45, 71
  br i1 %46, label %47, label %53

47:                                               ; preds = %41
  %48 = load i64, ptr %12, align 8, !tbaa !90
  %49 = icmp uge i64 %48, 188
  br i1 %49, label %50, label %53

50:                                               ; preds = %47
  %51 = load ptr, ptr %9, align 8, !tbaa !183
  %52 = call i64 @avio_seek(ptr noundef %51, i64 noundef -176, i32 noundef 1)
  store i32 0, ptr %4, align 4
  store i32 1, ptr %14, align 4
  br label %115

53:                                               ; preds = %47, %41, %34
  %54 = load ptr, ptr %9, align 8, !tbaa !183
  %55 = load i64, ptr %13, align 8, !tbaa !90
  %56 = sub nsw i64 0, %55
  %57 = call i64 @avio_seek(ptr noundef %54, i64 noundef %56, i32 noundef 1)
  store i32 0, ptr %11, align 4, !tbaa !11
  br label %58

58:                                               ; preds = %110, %53
  %59 = load i32, ptr %11, align 4, !tbaa !11
  %60 = load ptr, ptr %8, align 8, !tbaa !20
  %61 = getelementptr inbounds nuw %struct.MpegTSContext, ptr %60, i32 0, i32 16
  %62 = load i32, ptr %61, align 8, !tbaa !185
  %63 = icmp slt i32 %59, %62
  br i1 %63, label %64, label %113

64:                                               ; preds = %58
  %65 = load ptr, ptr %9, align 8, !tbaa !183
  %66 = call i32 @avio_r8(ptr noundef %65)
  store i32 %66, ptr %10, align 4, !tbaa !11
  %67 = load ptr, ptr %9, align 8, !tbaa !183
  %68 = call i32 @avio_feof(ptr noundef %67)
  %69 = icmp ne i32 %68, 0
  br i1 %69, label %70, label %71

70:                                               ; preds = %64
  store i32 -541478725, ptr %4, align 4
  store i32 1, ptr %14, align 4
  br label %115

71:                                               ; preds = %64
  %72 = load i32, ptr %10, align 4, !tbaa !11
  %73 = icmp eq i32 %72, 71
  br i1 %73, label %74, label %109

74:                                               ; preds = %71
  call void @llvm.lifetime.start.p0(i64 4, ptr %15) #12
  call void @llvm.lifetime.start.p0(i64 4, ptr %16) #12
  %75 = load ptr, ptr %9, align 8, !tbaa !183
  %76 = call i64 @avio_seek(ptr noundef %75, i64 noundef -1, i32 noundef 1)
  %77 = load ptr, ptr %9, align 8, !tbaa !183
  %78 = call i64 @avio_tell(ptr noundef %77)
  store i64 %78, ptr %12, align 8, !tbaa !90
  %79 = load ptr, ptr %9, align 8, !tbaa !183
  %80 = call i32 @ffio_ensure_seekback(ptr noundef %79, i64 noundef 8192)
  store i32 %80, ptr %16, align 4, !tbaa !11
  %81 = load i32, ptr %16, align 4, !tbaa !11
  %82 = icmp slt i32 %81, 0
  br i1 %82, label %83, label %85

83:                                               ; preds = %74
  %84 = load i32, ptr %16, align 4, !tbaa !11
  store i32 %84, ptr %4, align 4
  store i32 1, ptr %14, align 4
  br label %108

85:                                               ; preds = %74
  %86 = load ptr, ptr %5, align 8, !tbaa !4
  %87 = call i32 @get_packet_size(ptr noundef %86)
  store i32 %87, ptr %15, align 4, !tbaa !11
  %88 = load i32, ptr %15, align 4, !tbaa !11
  %89 = icmp sgt i32 %88, 0
  br i1 %89, label %90, label %104

90:                                               ; preds = %85
  %91 = load i32, ptr %15, align 4, !tbaa !11
  %92 = load ptr, ptr %8, align 8, !tbaa !20
  %93 = getelementptr inbounds nuw %struct.MpegTSContext, ptr %92, i32 0, i32 2
  %94 = load i32, ptr %93, align 8, !tbaa !118
  %95 = icmp ne i32 %91, %94
  br i1 %95, label %96, label %104

96:                                               ; preds = %90
  %97 = load ptr, ptr %8, align 8, !tbaa !20
  %98 = getelementptr inbounds nuw %struct.MpegTSContext, ptr %97, i32 0, i32 1
  %99 = load ptr, ptr %98, align 8, !tbaa !72
  %100 = load i32, ptr %15, align 4, !tbaa !11
  call void (ptr, i32, ptr, ...) @av_log(ptr noundef %99, i32 noundef 24, ptr noundef @.str.94, i32 noundef %100)
  %101 = load i32, ptr %15, align 4, !tbaa !11
  %102 = load ptr, ptr %8, align 8, !tbaa !20
  %103 = getelementptr inbounds nuw %struct.MpegTSContext, ptr %102, i32 0, i32 2
  store i32 %101, ptr %103, align 8, !tbaa !118
  br label %104

104:                                              ; preds = %96, %90, %85
  %105 = load ptr, ptr %9, align 8, !tbaa !183
  %106 = load i64, ptr %12, align 8, !tbaa !90
  %107 = call i64 @avio_seek(ptr noundef %105, i64 noundef %106, i32 noundef 0)
  store i32 0, ptr %4, align 4
  store i32 1, ptr %14, align 4
  br label %108

108:                                              ; preds = %104, %83
  call void @llvm.lifetime.end.p0(i64 4, ptr %16) #12
  call void @llvm.lifetime.end.p0(i64 4, ptr %15) #12
  br label %115

109:                                              ; preds = %71
  br label %110

110:                                              ; preds = %109
  %111 = load i32, ptr %11, align 4, !tbaa !11
  %112 = add nsw i32 %111, 1
  store i32 %112, ptr %11, align 4, !tbaa !11
  br label %58, !llvm.loop !331

113:                                              ; preds = %58
  %114 = load ptr, ptr %5, align 8, !tbaa !4
  call void (ptr, i32, ptr, ...) @av_log(ptr noundef %114, i32 noundef 16, ptr noundef @.str.95)
  store i32 -1094995529, ptr %4, align 4
  store i32 1, ptr %14, align 4
  br label %115

115:                                              ; preds = %113, %108, %70, %50
  call void @llvm.lifetime.end.p0(i64 8, ptr %13) #12
  call void @llvm.lifetime.end.p0(i64 8, ptr %12) #12
  call void @llvm.lifetime.end.p0(i64 4, ptr %11) #12
  call void @llvm.lifetime.end.p0(i64 4, ptr %10) #12
  call void @llvm.lifetime.end.p0(i64 8, ptr %9) #12
  call void @llvm.lifetime.end.p0(i64 8, ptr %8) #12
  %116 = load i32, ptr %4, align 4
  ret i32 %116
}

; Function Attrs: nounwind uwtable
define internal i32 @read_packet(ptr noundef %0, ptr noundef %1, i32 noundef %2, ptr noundef %3) #0 {
  %5 = alloca i32, align 4
  %6 = alloca ptr, align 8
  %7 = alloca ptr, align 8
  %8 = alloca i32, align 4
  %9 = alloca ptr, align 8
  %10 = alloca ptr, align 8
  %11 = alloca i32, align 4
  %12 = alloca i32, align 4
  store ptr %0, ptr %6, align 8, !tbaa !4
  store ptr %1, ptr %7, align 8, !tbaa !16
  store i32 %2, ptr %8, align 4, !tbaa !11
  store ptr %3, ptr %9, align 8, !tbaa !13
  call void @llvm.lifetime.start.p0(i64 8, ptr %10) #12
  %13 = load ptr, ptr %6, align 8, !tbaa !4
  %14 = getelementptr inbounds nuw %struct.AVFormatContext, ptr %13, i32 0, i32 4
  %15 = load ptr, ptr %14, align 8, !tbaa !182
  store ptr %15, ptr %10, align 8, !tbaa !183
  call void @llvm.lifetime.start.p0(i64 4, ptr %11) #12
  %16 = load i32, ptr %8, align 4, !tbaa !11
  %17 = icmp eq i32 %16, 192
  br i1 %17, label %18, label %21

18:                                               ; preds = %4
  %19 = load ptr, ptr %10, align 8, !tbaa !183
  %20 = call i64 @avio_skip(ptr noundef %19, i64 noundef 4)
  br label %21

21:                                               ; preds = %18, %4
  br label %22

22:                                               ; preds = %52, %21
  %23 = load ptr, ptr %10, align 8, !tbaa !183
  %24 = load ptr, ptr %7, align 8, !tbaa !16
  %25 = load ptr, ptr %9, align 8, !tbaa !13
  %26 = call i32 @ffio_read_indirect(ptr noundef %23, ptr noundef %24, i32 noundef 188, ptr noundef %25)
  store i32 %26, ptr %11, align 4, !tbaa !11
  %27 = load i32, ptr %11, align 4, !tbaa !11
  %28 = icmp ne i32 %27, 188
  br i1 %28, label %29, label %37

29:                                               ; preds = %22
  %30 = load i32, ptr %11, align 4, !tbaa !11
  %31 = icmp slt i32 %30, 0
  br i1 %31, label %32, label %34

32:                                               ; preds = %29
  %33 = load i32, ptr %11, align 4, !tbaa !11
  br label %35

34:                                               ; preds = %29
  br label %35

35:                                               ; preds = %34, %32
  %36 = phi i32 [ %33, %32 ], [ -541478725, %34 ]
  store i32 %36, ptr %5, align 4
  store i32 1, ptr %12, align 4
  br label %55

37:                                               ; preds = %22
  %38 = load ptr, ptr %9, align 8, !tbaa !13
  %39 = load ptr, ptr %38, align 8, !tbaa !16
  %40 = getelementptr inbounds i8, ptr %39, i64 0
  %41 = load i8, ptr %40, align 1, !tbaa !66
  %42 = zext i8 %41 to i32
  %43 = icmp ne i32 %42, 71
  br i1 %43, label %44, label %53

44:                                               ; preds = %37
  %45 = load ptr, ptr %6, align 8, !tbaa !4
  %46 = load i32, ptr %8, align 4, !tbaa !11
  %47 = load ptr, ptr %9, align 8, !tbaa !13
  %48 = load ptr, ptr %47, align 8, !tbaa !16
  %49 = call i32 @mpegts_resync(ptr noundef %45, i32 noundef %46, ptr noundef %48)
  %50 = icmp slt i32 %49, 0
  br i1 %50, label %51, label %52

51:                                               ; preds = %44
  store i32 -11, ptr %5, align 4
  store i32 1, ptr %12, align 4
  br label %55

52:                                               ; preds = %44
  br label %22

53:                                               ; preds = %37
  br label %54

54:                                               ; preds = %53
  store i32 0, ptr %5, align 4
  store i32 1, ptr %12, align 4
  br label %55

55:                                               ; preds = %54, %51, %35
  call void @llvm.lifetime.end.p0(i64 4, ptr %11) #12
  call void @llvm.lifetime.end.p0(i64 8, ptr %10) #12
  %56 = load i32, ptr %5, align 4
  ret i32 %56
}