; Function Attrs: nounwind uwtable
define internal fastcc range(i32 189, 188) i32 @read_packet(ptr noundef %0, ptr noundef %1, i32 noundef %2, ptr noundef nonnull %3) unnamed_addr #0 {
  %5 = getelementptr inbounds nuw i8, ptr %0, i64 32
  %6 = load ptr, ptr %5, align 8, !tbaa !189
  %7 = icmp eq i32 %2, 192
  br i1 %7, label %8, label %10

8:                                                ; preds = %4
  %9 = tail call i64 @avio_skip(ptr noundef %6, i64 noundef 4) #12
  br label %10

10:                                               ; preds = %8, %4
  %11 = tail call i32 @ffio_read_indirect(ptr noundef %6, ptr noundef %1, i32 noundef 188, ptr noundef nonnull %3) #12
  %.not22 = icmp eq i32 %11, 188
  br i1 %.not22, label %.lr.ph, label %._crit_edge

.lr.ph:                                           ; preds = %10
  %12 = getelementptr inbounds nuw i8, ptr %0, i64 24
  %13 = sext i32 %2 to i64
  br label %16

._crit_edge:                                      ; preds = %mpegts_resync.exit, %10
  %.lcssa = phi i32 [ %11, %10 ], [ %63, %mpegts_resync.exit ]
  %14 = icmp slt i32 %.lcssa, 0
  %15 = select i1 %14, i32 %.lcssa, i32 -541478725
  br label %mpegts_resync.exit.thread

16:                                               ; preds = %.lr.ph, %mpegts_resync.exit
  %17 = load ptr, ptr %3, align 8, !tbaa !4
  %18 = load i8, ptr %17, align 1, !tbaa !9
  %.not14 = icmp eq i8 %18, 71
  br i1 %.not14, label %mpegts_resync.exit.thread, label %19

19:                                               ; preds = %16
  %20 = load ptr, ptr %12, align 8, !tbaa !188
  %21 = load ptr, ptr %5, align 8, !tbaa !189
  %22 = tail call i64 @avio_seek(ptr noundef %21, i64 noundef 0, i32 noundef 1) #12
  %23 = tail call i64 @llvm.umin.i64(i64 %22, i64 %13)
  %24 = load i8, ptr %17, align 1, !tbaa !9
  %25 = icmp eq i8 %24, -128
  br i1 %25, label %26, label %33

26:                                               ; preds = %19
  %27 = getelementptr inbounds nuw i8, ptr %17, i64 12
  %28 = load i8, ptr %27, align 1, !tbaa !9
  %29 = icmp eq i8 %28, 71
  %30 = icmp ugt i64 %22, 187
  %or.cond.i = select i1 %29, i1 %30, i1 false
  br i1 %or.cond.i, label %31, label %33

31:                                               ; preds = %26
  %32 = tail call i64 @avio_seek(ptr noundef %21, i64 noundef -176, i32 noundef 1) #12
  br label %mpegts_resync.exit

33:                                               ; preds = %26, %19
  %34 = sub nsw i64 0, %23
  %35 = tail call i64 @avio_seek(ptr noundef %21, i64 noundef %34, i32 noundef 1) #12
  %36 = getelementptr inbounds nuw i8, ptr %20, i64 104
  %37 = load i32, ptr %36, align 8, !tbaa !191
  %38 = icmp sgt i32 %37, 0
  br i1 %38, label %.lr.ph.i, label %._crit_edge.i

39:                                               ; preds = %45
  %40 = add nuw nsw i32 %.03640.i, 1
  %41 = load i32, ptr %36, align 8, !tbaa !191
  %42 = icmp slt i32 %40, %41
  br i1 %42, label %.lr.ph.i, label %._crit_edge.i, !llvm.loop !287

.lr.ph.i:                                         ; preds = %33, %39
  %.03640.i = phi i32 [ %40, %39 ], [ 0, %33 ]
  %43 = tail call i32 @avio_r8(ptr noundef %21) #12
  %44 = tail call i32 @avio_feof(ptr noundef %21) #12
  %.not.i = icmp eq i32 %44, 0
  br i1 %.not.i, label %45, label %mpegts_resync.exit.thread

45:                                               ; preds = %.lr.ph.i
  %46 = icmp eq i32 %43, 71
  br i1 %46, label %47, label %39

47:                                               ; preds = %45
  %48 = tail call i64 @avio_seek(ptr noundef %21, i64 noundef -1, i32 noundef 1) #12
  %49 = tail call i64 @avio_seek(ptr noundef %21, i64 noundef 0, i32 noundef 1) #12
  %50 = tail call i32 @ffio_ensure_seekback(ptr noundef %21, i64 noundef 8192) #12
  %51 = icmp slt i32 %50, 0
  br i1 %51, label %mpegts_resync.exit.thread, label %52

52:                                               ; preds = %47
  %53 = tail call fastcc i32 @get_packet_size(ptr noundef %0)
  %54 = icmp sgt i32 %53, 0
  br i1 %54, label %55, label %61

55:                                               ; preds = %52
  %56 = getelementptr inbounds nuw i8, ptr %20, i64 16
  %57 = load i32, ptr %56, align 8, !tbaa !111
  %.not39.i = icmp eq i32 %53, %57
  br i1 %.not39.i, label %61, label %58

58:                                               ; preds = %55
  %59 = getelementptr inbounds nuw i8, ptr %20, i64 8
  %60 = load ptr, ptr %59, align 8, !tbaa !57
  tail call void (ptr, i32, ptr, ...) @av_log(ptr noundef %60, i32 noundef 24, ptr noundef nonnull @.str.94, i32 noundef %53) #12
  store i32 %53, ptr %56, align 8, !tbaa !111
  br label %61

61:                                               ; preds = %58, %55, %52
  %62 = tail call i64 @avio_seek(ptr noundef %21, i64 noundef %49, i32 noundef 0) #12
  br label %mpegts_resync.exit

._crit_edge.i:                                    ; preds = %33, %39
  tail call void (ptr, i32, ptr, ...) @av_log(ptr noundef %0, i32 noundef 16, ptr noundef nonnull @.str.95) #12
  br label %mpegts_resync.exit.thread

mpegts_resync.exit:                               ; preds = %31, %61
  %63 = tail call i32 @ffio_read_indirect(ptr noundef %6, ptr noundef %1, i32 noundef 188, ptr noundef nonnull %3) #12
  %.not = icmp eq i32 %63, 188
  br i1 %.not, label %16, label %._crit_edge

mpegts_resync.exit.thread:                        ; preds = %47, %16, %.lr.ph.i, %._crit_edge.i, %._crit_edge
  %.0 = phi i32 [ %15, %._crit_edge ], [ -11, %._crit_edge.i ], [ -11, %.lr.ph.i ], [ -11, %47 ], [ 0, %16 ]
  ret i32 %.0
}